target datalayout = "e-m:e-p270:32:32-p271:32:32-p272:64:64-i64:64-i128:128-f80:128-n8:16:32:64-S128"
target triple = "x86_64-pc-linux-gnu"

%struct.sockaddr_storage = type { i16, [118 x i8], i64 }

; Function Attrs: nounwind uwtable
define dso_local i32 @slurm_get_peer_addr(i32 noundef %0, ptr noundef %1) #0 {
  %3 = alloca i32, align 4
  %4 = alloca i32, align 4
  %5 = alloca ptr, align 8
  %6 = alloca %struct.sockaddr_storage, align 8
  %7 = alloca i32, align 4
  %8 = alloca i32, align 4
  store i32 %0, ptr %4, align 4
  store ptr %1, ptr %5, align 8
  call void @llvm.lifetime.start.p0(i64 128, ptr %6) #12
  call void @llvm.memset.p0.i64(ptr align 8 %6, i8 0, i64 128, i1 false)
  call void @llvm.lifetime.start.p0(i64 4, ptr %7) #12
  store i32 128, ptr %7, align 4
  %9 = load i32, ptr %4, align 4
  %10 = call i32 @getpeername(i32 noundef %9, ptr noundef %6, ptr noundef %7) #12
  %11 = icmp ne i32 %10, 0
  br i1 %11, label %12, label %15

12:                                               ; preds = %2
  %13 = call ptr @__errno_location() #14
  %14 = load i32, ptr %13, align 4
  store i32 %14, ptr %3, align 4
  store i32 1, ptr %8, align 4
  br label %17

15:                                               ; preds = %2
  %16 = load ptr, ptr %5, align 8
  call void @llvm.memcpy.p0.p0.i64(ptr align 8 %16, ptr align 8 %6, i64 128, i1 false)
  store i32 0, ptr %3, align 4
  store i32 1, ptr %8, align 4
  br label %17

17:                                               ; preds = %15, %12
  call void @llvm.lifetime.end.p0(i64 4, ptr %7) #12
  call void @llvm.lifetime.end.p0(i64 128, ptr %6) #12
  %18 = load i32, ptr %3, align 4
  ret i32 %18
}