; Function Attrs: nounwind uwtable
define dso_local i32 @slurm_get_peer_addr(i32 noundef %0, ptr noundef writeonly captures(none) %1) local_unnamed_addr #1 {
  %3 = alloca %struct.sockaddr_storage, align 8
  %4 = alloca i32, align 4
  call void @llvm.lifetime.start.p0(i64 128, ptr nonnull %3) #19
  call void @llvm.memset.p0.i64(ptr noundef nonnull align 8 dereferenceable(128) %3, i8 0, i64 128, i1 false)
  call void @llvm.lifetime.start.p0(i64 4, ptr nonnull %4) #19
  store i32 128, ptr %4, align 4
  %5 = call i32 @getpeername(i32 noundef %0, ptr noundef nonnull %3, ptr noundef nonnull %4) #19
  %.not = icmp eq i32 %5, 0
  br i1 %.not, label %9, label %6

6:                                                ; preds = %2
  %7 = tail call ptr @__errno_location() #21
  %8 = load i32, ptr %7, align 4
  br label %10

9:                                                ; preds = %2
  call void @llvm.memcpy.p0.p0.i64(ptr noundef nonnull align 8 dereferenceable(128) %1, ptr noundef nonnull align 8 dereferenceable(128) %3, i64 128, i1 false)
  br label %10

10:                                               ; preds = %9, %6
  %.0 = phi i32 [ %8, %6 ], [ 0, %9 ]
  call void @llvm.lifetime.end.p0(i64 4, ptr nonnull %4) #19
  call void @llvm.lifetime.end.p0(i64 128, ptr nonnull %3) #19
  ret i32 %.0
}